; Function Attrs: mustprogress nounwind uwtable
define hidden noundef range(i32 0, 32) i32 @_ZN12JvmtiEnvBase18get_frame_locationEP7oopDesciPP10_jmethodIDPl(ptr nocapture nonnull readnone align 8 %0, ptr noundef %1, i32 noundef %2, ptr nocapture noundef writeonly %3, ptr nocapture noundef writeonly %4) local_unnamed_addr #0 align 2 {
  %6 = alloca %class.HandleMark, align 8
  %7 = tail call align 8 ptr @llvm.threadlocal.address.p0(ptr align 8 @_ZN6Thread12_thr_currentE)
  %8 = load ptr, ptr %7, align 8
  %9 = getelementptr inbounds i8, ptr %8, i64 800
  %10 = load ptr, ptr %9, align 8
  %11 = getelementptr inbounds i8, ptr %10, i64 24
  %12 = load ptr, ptr %11, align 8
  %13 = getelementptr inbounds i8, ptr %10, i64 32
  %14 = load ptr, ptr %13, align 8
  %15 = getelementptr inbounds i8, ptr %10, i64 40
  %16 = load ptr, ptr %15, align 8
  %17 = getelementptr inbounds i8, ptr %10, i64 8
  %18 = load i64, ptr %17, align 8
  call void @_ZN10HandleMark10initializeEP6Thread(ptr noundef nonnull align 8 dereferenceable(56) %6, ptr noundef %8) #18
  %19 = call noundef ptr @_ZN12JvmtiEnvBase15get_vthread_jvfEP7oopDesc(ptr noundef %1)
  %20 = icmp ne ptr %19, null
  %21 = icmp sgt i32 %2, 0
  %22 = and i1 %21, %20
  br i1 %22, label %.lr.ph.i, label %._crit_edge.i

.lr.ph.i:                                         ; preds = %5, %.lr.ph.i
  %.01316.i = phi i32 [ %24, %.lr.ph.i ], [ 0, %5 ]
  %.01415.i = phi ptr [ %23, %.lr.ph.i ], [ %19, %5 ]
  %23 = call noundef ptr @_ZNK6vframe11java_senderEv(ptr noundef nonnull align 8 dereferenceable(5064) %.01415.i) #18
  %24 = add nuw nsw i32 %.01316.i, 1
  %25 = icmp ne ptr %23, null
  %26 = icmp slt i32 %24, %2
  %27 = select i1 %25, i1 %26, i1 false
  br i1 %27, label %.lr.ph.i, label %._crit_edge.i, !llvm.loop !54

._crit_edge.i:                                    ; preds = %.lr.ph.i, %5
  %.014.lcssa.i = phi ptr [ %19, %5 ], [ %23, %.lr.ph.i ]
  %28 = icmp eq ptr %.014.lcssa.i, null
  br i1 %28, label %_ZN12JvmtiEnvBase18get_frame_locationEP10javaVFrameiPP10_jmethodIDPl.exit, label %29

29:                                               ; preds = %._crit_edge.i
  %30 = load ptr, ptr %.014.lcssa.i, align 8
  %31 = getelementptr inbounds i8, ptr %30, i64 48
  %32 = load ptr, ptr %31, align 8
  %33 = call noundef ptr %32(ptr noundef nonnull align 8 dereferenceable(5064) %.014.lcssa.i) #18
  %34 = getelementptr inbounds i8, ptr %33, i64 40
  %.sroa.0.0.copyload.i.i.i = load i32, ptr %34, align 8
  %35 = and i32 %.sroa.0.0.copyload.i.i.i, 256
  %.not.i = icmp eq i32 %35, 0
  br i1 %.not.i, label %36, label %42

36:                                               ; preds = %29
  %37 = load ptr, ptr %.014.lcssa.i, align 8
  %38 = getelementptr inbounds i8, ptr %37, i64 56
  %39 = load ptr, ptr %38, align 8
  %40 = call noundef i32 %39(ptr noundef nonnull align 8 dereferenceable(5064) %.014.lcssa.i) #18
  %41 = sext i32 %40 to i64
  br label %42

42:                                               ; preds = %36, %29
  %storemerge.i = phi i64 [ %41, %36 ], [ -1, %29 ]
  store i64 %storemerge.i, ptr %4, align 8
  %43 = call noundef ptr @_ZN6Method10jmethod_idEv(ptr noundef nonnull align 8 dereferenceable(88) %33) #18
  store ptr %43, ptr %3, align 8
  br label %_ZN12JvmtiEnvBase18get_frame_locationEP10javaVFrameiPP10_jmethodIDPl.exit

_ZN12JvmtiEnvBase18get_frame_locationEP10javaVFrameiPP10_jmethodIDPl.exit: ; preds = %._crit_edge.i, %42
  %.0.i = phi i32 [ 0, %42 ], [ 31, %._crit_edge.i ]
  call void @_ZN10HandleMarkD1Ev(ptr noundef nonnull align 8 dereferenceable(56) %6) #18
  %44 = load ptr, ptr %12, align 8
  %.not.i.i.i.i = icmp eq ptr %44, null
  br i1 %.not.i.i.i.i, label %46, label %45

45:                                               ; preds = %_ZN12JvmtiEnvBase18get_frame_locationEP10javaVFrameiPP10_jmethodIDPl.exit
  call void @_ZN5Arena17set_size_in_bytesEm(ptr noundef nonnull align 8 dereferenceable(48) %10, i64 noundef %18) #18
  call void @_ZN5Chunk9next_chopEPS_(ptr noundef nonnull %12) #18
  br label %46

46:                                               ; preds = %45, %_ZN12JvmtiEnvBase18get_frame_locationEP10javaVFrameiPP10_jmethodIDPl.exit
  %47 = load ptr, ptr %13, align 8
  %.not8.i.i.i.i = icmp eq ptr %47, %14
  br i1 %.not8.i.i.i.i, label %_ZN12ResourceMarkD2Ev.exit, label %48

48:                                               ; preds = %46
  store ptr %12, ptr %11, align 8
  store ptr %14, ptr %13, align 8
  store ptr %16, ptr %15, align 8
  br label %_ZN12ResourceMarkD2Ev.exit

_ZN12ResourceMarkD2Ev.exit:                       ; preds = %46, %48
  ret i32 %.0.i
}